ARM GAS  C:\Users\xlin233\AppData\Local\Temp\ccmKiDS6.s 			page 1


   1              		.cpu cortex-m0
   2              		.fpu softvfp
   3              		.eabi_attribute 20, 1
   4              		.eabi_attribute 21, 1
   5              		.eabi_attribute 23, 3
   6              		.eabi_attribute 24, 1
   7              		.eabi_attribute 25, 1
   8              		.eabi_attribute 26, 1
   9              		.eabi_attribute 30, 6
  10              		.eabi_attribute 34, 0
  11              		.eabi_attribute 18, 4
  12              		.code	16
  13              		.file	"BLE_HAL_PVT.c"
  14              		.text
  15              	.Ltext0:
  16              		.cfi_sections	.debug_frame
  17              		.section	.text.CyBLE_Nvram_Write,"ax",%progbits
  18              		.align	2
  19              		.global	CyBLE_Nvram_Write
  20              		.code	16
  21              		.thumb_func
  22              		.type	CyBLE_Nvram_Write, %function
  23              	CyBLE_Nvram_Write:
  24              	.LFB2:
  25              		.file 1 ".\\Generated_Source\\PSoC4\\BLE_HAL_PVT.c"
   1:.\Generated_Source\PSoC4/BLE_HAL_PVT.c **** /*******************************************************************************
   2:.\Generated_Source\PSoC4/BLE_HAL_PVT.c **** * File Name: CYBLE_HAL_PVT.c
   3:.\Generated_Source\PSoC4/BLE_HAL_PVT.c **** * Version 2.0
   4:.\Generated_Source\PSoC4/BLE_HAL_PVT.c **** *
   5:.\Generated_Source\PSoC4/BLE_HAL_PVT.c **** * Description:
   6:.\Generated_Source\PSoC4/BLE_HAL_PVT.c **** *  This file contains the source code for the HAL section of the BLE component
   7:.\Generated_Source\PSoC4/BLE_HAL_PVT.c **** *
   8:.\Generated_Source\PSoC4/BLE_HAL_PVT.c **** ********************************************************************************
   9:.\Generated_Source\PSoC4/BLE_HAL_PVT.c **** * Copyright 2014-2015, Cypress Semiconductor Corporation.  All rights reserved.
  10:.\Generated_Source\PSoC4/BLE_HAL_PVT.c **** * You may use this file only in accordance with the license, terms, conditions,
  11:.\Generated_Source\PSoC4/BLE_HAL_PVT.c **** * disclaimers, and limitations in the end user license agreement accompanying
  12:.\Generated_Source\PSoC4/BLE_HAL_PVT.c **** * the software package with which this file was provided.
  13:.\Generated_Source\PSoC4/BLE_HAL_PVT.c **** *******************************************************************************/
  14:.\Generated_Source\PSoC4/BLE_HAL_PVT.c **** 
  15:.\Generated_Source\PSoC4/BLE_HAL_PVT.c **** #include "BLE_HAL_PVT.h"
  16:.\Generated_Source\PSoC4/BLE_HAL_PVT.c **** 
  17:.\Generated_Source\PSoC4/BLE_HAL_PVT.c **** 
  18:.\Generated_Source\PSoC4/BLE_HAL_PVT.c **** #if(CYBLE_MODE == CYBLE_HCI)
  19:.\Generated_Source\PSoC4/BLE_HAL_PVT.c **** 
  20:.\Generated_Source\PSoC4/BLE_HAL_PVT.c **** 
  21:.\Generated_Source\PSoC4/BLE_HAL_PVT.c **** /*******************************************************************************
  22:.\Generated_Source\PSoC4/BLE_HAL_PVT.c **** * Function Name: CyBLE_Uart_Start
  23:.\Generated_Source\PSoC4/BLE_HAL_PVT.c **** ********************************************************************************
  24:.\Generated_Source\PSoC4/BLE_HAL_PVT.c **** *
  25:.\Generated_Source\PSoC4/BLE_HAL_PVT.c **** * Summary:
  26:.\Generated_Source\PSoC4/BLE_HAL_PVT.c **** *  Enables the platform UART Tx and RX interrupts and then enables the UART
  27:.\Generated_Source\PSoC4/BLE_HAL_PVT.c **** *  component.
  28:.\Generated_Source\PSoC4/BLE_HAL_PVT.c **** *
  29:.\Generated_Source\PSoC4/BLE_HAL_PVT.c **** * Parameters:
  30:.\Generated_Source\PSoC4/BLE_HAL_PVT.c **** *  None
  31:.\Generated_Source\PSoC4/BLE_HAL_PVT.c **** *
  32:.\Generated_Source\PSoC4/BLE_HAL_PVT.c **** * Return:
ARM GAS  C:\Users\xlin233\AppData\Local\Temp\ccmKiDS6.s 			page 2


  33:.\Generated_Source\PSoC4/BLE_HAL_PVT.c **** *  None
  34:.\Generated_Source\PSoC4/BLE_HAL_PVT.c **** *
  35:.\Generated_Source\PSoC4/BLE_HAL_PVT.c **** *******************************************************************************/
  36:.\Generated_Source\PSoC4/BLE_HAL_PVT.c **** void CyBLE_Uart_Start (void)
  37:.\Generated_Source\PSoC4/BLE_HAL_PVT.c **** {
  38:.\Generated_Source\PSoC4/BLE_HAL_PVT.c ****     /* Setup ISR */
  39:.\Generated_Source\PSoC4/BLE_HAL_PVT.c ****     BLE_uart_isr_StartEx(&CyBLE_Uart_Interrupt);
  40:.\Generated_Source\PSoC4/BLE_HAL_PVT.c **** 
  41:.\Generated_Source\PSoC4/BLE_HAL_PVT.c ****     BLE_HAL_Uart_Start();
  42:.\Generated_Source\PSoC4/BLE_HAL_PVT.c **** }
  43:.\Generated_Source\PSoC4/BLE_HAL_PVT.c **** 
  44:.\Generated_Source\PSoC4/BLE_HAL_PVT.c **** 
  45:.\Generated_Source\PSoC4/BLE_HAL_PVT.c **** /*******************************************************************************
  46:.\Generated_Source\PSoC4/BLE_HAL_PVT.c **** * Function Name: CyBLE_Uart_Stop
  47:.\Generated_Source\PSoC4/BLE_HAL_PVT.c **** ********************************************************************************
  48:.\Generated_Source\PSoC4/BLE_HAL_PVT.c **** *
  49:.\Generated_Source\PSoC4/BLE_HAL_PVT.c **** * Summary:
  50:.\Generated_Source\PSoC4/BLE_HAL_PVT.c **** *  Disables the UART, clears all pending interrupts and disables the UART Tx
  51:.\Generated_Source\PSoC4/BLE_HAL_PVT.c **** *  and RX interrupts. This will also empty out the FIFOs.
  52:.\Generated_Source\PSoC4/BLE_HAL_PVT.c **** *
  53:.\Generated_Source\PSoC4/BLE_HAL_PVT.c **** * Parameters:
  54:.\Generated_Source\PSoC4/BLE_HAL_PVT.c **** *  None
  55:.\Generated_Source\PSoC4/BLE_HAL_PVT.c **** *
  56:.\Generated_Source\PSoC4/BLE_HAL_PVT.c **** * Return:
  57:.\Generated_Source\PSoC4/BLE_HAL_PVT.c **** *  None
  58:.\Generated_Source\PSoC4/BLE_HAL_PVT.c **** *
  59:.\Generated_Source\PSoC4/BLE_HAL_PVT.c **** *******************************************************************************/
  60:.\Generated_Source\PSoC4/BLE_HAL_PVT.c **** void CyBLE_Uart_Stop (void)
  61:.\Generated_Source\PSoC4/BLE_HAL_PVT.c **** {
  62:.\Generated_Source\PSoC4/BLE_HAL_PVT.c ****     /* Stop interrupt and UART */
  63:.\Generated_Source\PSoC4/BLE_HAL_PVT.c ****     BLE_uart_isr_Stop();
  64:.\Generated_Source\PSoC4/BLE_HAL_PVT.c **** 
  65:.\Generated_Source\PSoC4/BLE_HAL_PVT.c ****     BLE_HAL_Uart_Stop();
  66:.\Generated_Source\PSoC4/BLE_HAL_PVT.c **** }
  67:.\Generated_Source\PSoC4/BLE_HAL_PVT.c **** 
  68:.\Generated_Source\PSoC4/BLE_HAL_PVT.c **** 
  69:.\Generated_Source\PSoC4/BLE_HAL_PVT.c **** /*******************************************************************************
  70:.\Generated_Source\PSoC4/BLE_HAL_PVT.c **** * Function Name: CyBLE_Uart_Transmit
  71:.\Generated_Source\PSoC4/BLE_HAL_PVT.c **** ********************************************************************************
  72:.\Generated_Source\PSoC4/BLE_HAL_PVT.c **** *
  73:.\Generated_Source\PSoC4/BLE_HAL_PVT.c **** * Summary:
  74:.\Generated_Source\PSoC4/BLE_HAL_PVT.c **** *  Sends the data to Uart Tx FIFO. The API handles data length up to the 
  75:.\Generated_Source\PSoC4/BLE_HAL_PVT.c **** *  supported Tx FIFO length of the uart hardware module.
  76:.\Generated_Source\PSoC4/BLE_HAL_PVT.c **** *
  77:.\Generated_Source\PSoC4/BLE_HAL_PVT.c **** * Parameters:
  78:.\Generated_Source\PSoC4/BLE_HAL_PVT.c **** *  uint8 *data: Pointer to the data to send through the UART
  79:.\Generated_Source\PSoC4/BLE_HAL_PVT.c **** *  uint8 length: the length of data to transmit in bytes
  80:.\Generated_Source\PSoC4/BLE_HAL_PVT.c **** *
  81:.\Generated_Source\PSoC4/BLE_HAL_PVT.c **** * Return:
  82:.\Generated_Source\PSoC4/BLE_HAL_PVT.c **** *  None
  83:.\Generated_Source\PSoC4/BLE_HAL_PVT.c **** *
  84:.\Generated_Source\PSoC4/BLE_HAL_PVT.c **** *******************************************************************************/
  85:.\Generated_Source\PSoC4/BLE_HAL_PVT.c **** void CyBLE_Uart_Transmit (const uint8 *dataBuf, uint8 length)
  86:.\Generated_Source\PSoC4/BLE_HAL_PVT.c **** {
  87:.\Generated_Source\PSoC4/BLE_HAL_PVT.c ****     BLE_HAL_Uart_SpiUartPutArray(dataBuf, (uint32)length);
  88:.\Generated_Source\PSoC4/BLE_HAL_PVT.c **** }
  89:.\Generated_Source\PSoC4/BLE_HAL_PVT.c **** 
ARM GAS  C:\Users\xlin233\AppData\Local\Temp\ccmKiDS6.s 			page 3


  90:.\Generated_Source\PSoC4/BLE_HAL_PVT.c **** #endif /* (CYBLE_MODE == CYBLE_HCI) */
  91:.\Generated_Source\PSoC4/BLE_HAL_PVT.c **** 
  92:.\Generated_Source\PSoC4/BLE_HAL_PVT.c **** 
  93:.\Generated_Source\PSoC4/BLE_HAL_PVT.c **** /*******************************************************************************
  94:.\Generated_Source\PSoC4/BLE_HAL_PVT.c **** * Function Name: CyBLE_Nvram_Write
  95:.\Generated_Source\PSoC4/BLE_HAL_PVT.c **** ********************************************************************************
  96:.\Generated_Source\PSoC4/BLE_HAL_PVT.c **** *
  97:.\Generated_Source\PSoC4/BLE_HAL_PVT.c **** * Summary:
  98:.\Generated_Source\PSoC4/BLE_HAL_PVT.c **** *  This API writes the data to the NVRAM store. It will check the appropriate
  99:.\Generated_Source\PSoC4/BLE_HAL_PVT.c **** *  alignment of a start address and also perform an address range check based
 100:.\Generated_Source\PSoC4/BLE_HAL_PVT.c **** *  on the length before performing the write operation.
 101:.\Generated_Source\PSoC4/BLE_HAL_PVT.c **** *  This function performs memory compare and writes only row where there are new
 102:.\Generated_Source\PSoC4/BLE_HAL_PVT.c **** *  data to write.
 103:.\Generated_Source\PSoC4/BLE_HAL_PVT.c **** *
 104:.\Generated_Source\PSoC4/BLE_HAL_PVT.c **** * Parameters:
 105:.\Generated_Source\PSoC4/BLE_HAL_PVT.c **** *  const uint8 *buffer: Pointer to the buffer containing the data to be stored.
 106:.\Generated_Source\PSoC4/BLE_HAL_PVT.c **** *  const uint8 *varFlash: Pointer to the array or variable in the flash.
 107:.\Generated_Source\PSoC4/BLE_HAL_PVT.c **** *  uint16 length: the length of the data in bytes.
 108:.\Generated_Source\PSoC4/BLE_HAL_PVT.c **** *
 109:.\Generated_Source\PSoC4/BLE_HAL_PVT.c **** * Return:
 110:.\Generated_Source\PSoC4/BLE_HAL_PVT.c **** *  CYRET_SUCCESS    a successful write
 111:.\Generated_Source\PSoC4/BLE_HAL_PVT.c **** *  CYRET_BAD_PARAM  A request to write outside the flash boundary.
 112:.\Generated_Source\PSoC4/BLE_HAL_PVT.c **** *  CYRET_UNKNOWN    Other errors in writing the flash
 113:.\Generated_Source\PSoC4/BLE_HAL_PVT.c **** *
 114:.\Generated_Source\PSoC4/BLE_HAL_PVT.c **** * Side Effects:
 115:.\Generated_Source\PSoC4/BLE_HAL_PVT.c **** *  For BLE devices with 128K of Flash memory this API will automatically 
 116:.\Generated_Source\PSoC4/BLE_HAL_PVT.c **** *  modify the clock settings for the device.
 117:.\Generated_Source\PSoC4/BLE_HAL_PVT.c **** *  Writing to flash requires changes to be done to the IMO (set to 48 MHz)
 118:.\Generated_Source\PSoC4/BLE_HAL_PVT.c **** *  and HFCLK (source set to IMO) settings. The configuration is restored before
 119:.\Generated_Source\PSoC4/BLE_HAL_PVT.c **** *  returning. This will impact the operation of most of the hardware in the
 120:.\Generated_Source\PSoC4/BLE_HAL_PVT.c **** *  device.
 121:.\Generated_Source\PSoC4/BLE_HAL_PVT.c **** *
 122:.\Generated_Source\PSoC4/BLE_HAL_PVT.c **** *******************************************************************************/
 123:.\Generated_Source\PSoC4/BLE_HAL_PVT.c **** cystatus CyBLE_Nvram_Write (const uint8 buffer[], const uint8 varFlash[], uint16 length)
 124:.\Generated_Source\PSoC4/BLE_HAL_PVT.c **** {
  26              		.loc 1 124 0
  27              		.cfi_startproc
  28 0000 80B5     		push	{r7, lr}
  29              		.cfi_def_cfa_offset 8
  30              		.cfi_offset 7, -8
  31              		.cfi_offset 14, -4
  32 0002 ACB0     		sub	sp, sp, #176
  33              		.cfi_def_cfa_offset 184
  34 0004 00AF     		add	r7, sp, #0
  35              		.cfi_def_cfa_register 7
  36 0006 F860     		str	r0, [r7, #12]
  37 0008 B960     		str	r1, [r7, #8]
  38 000a BB1D     		add	r3, r7, #6
  39 000c 1A80     		strh	r2, [r3]
 125:.\Generated_Source\PSoC4/BLE_HAL_PVT.c ****     uint8 writeBuffer[CY_FLASH_SIZEOF_ROW];
 126:.\Generated_Source\PSoC4/BLE_HAL_PVT.c ****     uint32 rowId;
 127:.\Generated_Source\PSoC4/BLE_HAL_PVT.c ****     uint32 dstIndex;
 128:.\Generated_Source\PSoC4/BLE_HAL_PVT.c ****     uint32 srcIndex = 0u;
  40              		.loc 1 128 0
  41 000e 0023     		mov	r3, #0
  42 0010 A420     		mov	r0, #164
  43 0012 C019     		add	r0, r0, r7
ARM GAS  C:\Users\xlin233\AppData\Local\Temp\ccmKiDS6.s 			page 4


  44 0014 0360     		str	r3, [r0]
 129:.\Generated_Source\PSoC4/BLE_HAL_PVT.c ****     cystatus rc = CYRET_SUCCESS;
  45              		.loc 1 129 0
  46 0016 0023     		mov	r3, #0
  47 0018 A021     		mov	r1, #160
  48 001a C919     		add	r1, r1, r7
  49 001c 0B60     		str	r3, [r1]
 130:.\Generated_Source\PSoC4/BLE_HAL_PVT.c ****     uint32 eeOffset;
 131:.\Generated_Source\PSoC4/BLE_HAL_PVT.c ****     uint32 byteOffset;
 132:.\Generated_Source\PSoC4/BLE_HAL_PVT.c ****     uint32 rowsNotEqual;
 133:.\Generated_Source\PSoC4/BLE_HAL_PVT.c **** 
 134:.\Generated_Source\PSoC4/BLE_HAL_PVT.c ****     eeOffset = (uint32)varFlash;
  50              		.loc 1 134 0
  51 001e BB68     		ldr	r3, [r7, #8]
  52 0020 9422     		mov	r2, #148
  53 0022 D219     		add	r2, r2, r7
  54 0024 1360     		str	r3, [r2]
 135:.\Generated_Source\PSoC4/BLE_HAL_PVT.c **** 
 136:.\Generated_Source\PSoC4/BLE_HAL_PVT.c ****     /* Make sure, that varFlash[] points to Flash */
 137:.\Generated_Source\PSoC4/BLE_HAL_PVT.c ****     if ((eeOffset + length) < CYBLE_HAL_FLASH_END_ADDR)
  55              		.loc 1 137 0
  56 0026 BB1D     		add	r3, r7, #6
  57 0028 1A88     		ldrh	r2, [r3]
  58 002a 9420     		mov	r0, #148
  59 002c C019     		add	r0, r0, r7
  60 002e 0368     		ldr	r3, [r0]
  61 0030 D218     		add	r2, r2, r3
  62 0032 594B     		ldr	r3, .L14
  63 0034 9A42     		cmp	r2, r3
  64 0036 00D9     		bls	.LCB36
  65 0038 94E0     		b	.L2	@long jump
  66              	.LCB36:
 138:.\Generated_Source\PSoC4/BLE_HAL_PVT.c ****     {
 139:.\Generated_Source\PSoC4/BLE_HAL_PVT.c ****         rowId = eeOffset / CY_FLASH_SIZEOF_ROW;
  67              		.loc 1 139 0
  68 003a 9421     		mov	r1, #148
  69 003c C919     		add	r1, r1, r7
  70 003e 0B68     		ldr	r3, [r1]
  71 0040 DB09     		lsr	r3, r3, #7
  72 0042 AC22     		mov	r2, #172
  73 0044 D219     		add	r2, r2, r7
  74 0046 1360     		str	r3, [r2]
 140:.\Generated_Source\PSoC4/BLE_HAL_PVT.c ****         byteOffset = CY_FLASH_SIZEOF_ROW * rowId;
  75              		.loc 1 140 0
  76 0048 AC20     		mov	r0, #172
  77 004a C019     		add	r0, r0, r7
  78 004c 0368     		ldr	r3, [r0]
  79 004e DB01     		lsl	r3, r3, #7
  80 0050 9C21     		mov	r1, #156
  81 0052 C919     		add	r1, r1, r7
  82 0054 0B60     		str	r3, [r1]
 141:.\Generated_Source\PSoC4/BLE_HAL_PVT.c **** 
 142:.\Generated_Source\PSoC4/BLE_HAL_PVT.c ****         while ((srcIndex < length) && (CYRET_SUCCESS == rc))
  83              		.loc 1 142 0
  84 0056 77E0     		b	.L3
  85              	.L11:
 143:.\Generated_Source\PSoC4/BLE_HAL_PVT.c ****         {
ARM GAS  C:\Users\xlin233\AppData\Local\Temp\ccmKiDS6.s 			page 5


 144:.\Generated_Source\PSoC4/BLE_HAL_PVT.c ****             rowsNotEqual = 0u;
  86              		.loc 1 144 0
  87 0058 0023     		mov	r3, #0
  88 005a 9822     		mov	r2, #152
  89 005c D219     		add	r2, r2, r7
  90 005e 1360     		str	r3, [r2]
 145:.\Generated_Source\PSoC4/BLE_HAL_PVT.c ****             /* Copy data to the write buffer either from the source buffer or from the flash */
 146:.\Generated_Source\PSoC4/BLE_HAL_PVT.c ****             for (dstIndex = 0u; dstIndex < CY_FLASH_SIZEOF_ROW; dstIndex++)
  91              		.loc 1 146 0
  92 0060 0023     		mov	r3, #0
  93 0062 A820     		mov	r0, #168
  94 0064 C019     		add	r0, r0, r7
  95 0066 0360     		str	r3, [r0]
  96 0068 50E0     		b	.L4
  97              	.L8:
 147:.\Generated_Source\PSoC4/BLE_HAL_PVT.c ****             {
 148:.\Generated_Source\PSoC4/BLE_HAL_PVT.c ****                 if ((byteOffset >= eeOffset) && (srcIndex < length))
  98              		.loc 1 148 0
  99 006a 9C21     		mov	r1, #156
 100 006c C919     		add	r1, r1, r7
 101 006e 0A68     		ldr	r2, [r1]
 102 0070 9420     		mov	r0, #148
 103 0072 C019     		add	r0, r0, r7
 104 0074 0368     		ldr	r3, [r0]
 105 0076 9A42     		cmp	r2, r3
 106 0078 2ED3     		bcc	.L5
 107              		.loc 1 148 0 is_stmt 0 discriminator 1
 108 007a BB1D     		add	r3, r7, #6
 109 007c 1A88     		ldrh	r2, [r3]
 110 007e A421     		mov	r1, #164
 111 0080 C919     		add	r1, r1, r7
 112 0082 0B68     		ldr	r3, [r1]
 113 0084 9A42     		cmp	r2, r3
 114 0086 27D9     		bls	.L5
 149:.\Generated_Source\PSoC4/BLE_HAL_PVT.c ****                 {
 150:.\Generated_Source\PSoC4/BLE_HAL_PVT.c ****                     /* Detect that row programming is required */
 151:.\Generated_Source\PSoC4/BLE_HAL_PVT.c ****                     if(writeBuffer[dstIndex] != buffer[srcIndex])
 115              		.loc 1 151 0 is_stmt 1
 116 0088 3A1C     		mov	r2, r7
 117 008a 1432     		add	r2, r2, #20
 118 008c A820     		mov	r0, #168
 119 008e C019     		add	r0, r0, r7
 120 0090 0368     		ldr	r3, [r0]
 121 0092 D318     		add	r3, r2, r3
 122 0094 1A78     		ldrb	r2, [r3]
 123 0096 F968     		ldr	r1, [r7, #12]
 124 0098 A420     		mov	r0, #164
 125 009a C019     		add	r0, r0, r7
 126 009c 0368     		ldr	r3, [r0]
 127 009e CB18     		add	r3, r1, r3
 128 00a0 1B78     		ldrb	r3, [r3]
 129 00a2 9A42     		cmp	r2, r3
 130 00a4 10D0     		beq	.L6
 152:.\Generated_Source\PSoC4/BLE_HAL_PVT.c ****                     {
 153:.\Generated_Source\PSoC4/BLE_HAL_PVT.c ****                         writeBuffer[dstIndex] = buffer[srcIndex];
 131              		.loc 1 153 0
 132 00a6 FA68     		ldr	r2, [r7, #12]
ARM GAS  C:\Users\xlin233\AppData\Local\Temp\ccmKiDS6.s 			page 6


 133 00a8 A421     		mov	r1, #164
 134 00aa C919     		add	r1, r1, r7
 135 00ac 0B68     		ldr	r3, [r1]
 136 00ae D318     		add	r3, r2, r3
 137 00b0 1A78     		ldrb	r2, [r3]
 138 00b2 391C     		mov	r1, r7
 139 00b4 1431     		add	r1, r1, #20
 140 00b6 A820     		mov	r0, #168
 141 00b8 C019     		add	r0, r0, r7
 142 00ba 0368     		ldr	r3, [r0]
 143 00bc CB18     		add	r3, r1, r3
 144 00be 1A70     		strb	r2, [r3]
 154:.\Generated_Source\PSoC4/BLE_HAL_PVT.c ****                         rowsNotEqual = 1u;  
 145              		.loc 1 154 0
 146 00c0 0123     		mov	r3, #1
 147 00c2 9821     		mov	r1, #152
 148 00c4 C919     		add	r1, r1, r7
 149 00c6 0B60     		str	r3, [r1]
 150              	.L6:
 155:.\Generated_Source\PSoC4/BLE_HAL_PVT.c ****                     }
 156:.\Generated_Source\PSoC4/BLE_HAL_PVT.c ****                     srcIndex++;
 151              		.loc 1 156 0
 152 00c8 A422     		mov	r2, #164
 153 00ca D219     		add	r2, r2, r7
 154 00cc 1368     		ldr	r3, [r2]
 155 00ce 0133     		add	r3, r3, #1
 156 00d0 A420     		mov	r0, #164
 157 00d2 C019     		add	r0, r0, r7
 158 00d4 0360     		str	r3, [r0]
 159 00d6 0BE0     		b	.L7
 160              	.L5:
 157:.\Generated_Source\PSoC4/BLE_HAL_PVT.c ****                 }
 158:.\Generated_Source\PSoC4/BLE_HAL_PVT.c ****                 else
 159:.\Generated_Source\PSoC4/BLE_HAL_PVT.c ****                 {
 160:.\Generated_Source\PSoC4/BLE_HAL_PVT.c ****                     writeBuffer[dstIndex] = CY_GET_XTND_REG8(CYDEV_FLASH_BASE + byteOffset);
 161              		.loc 1 160 0
 162 00d8 9C21     		mov	r1, #156
 163 00da C919     		add	r1, r1, r7
 164 00dc 0B68     		ldr	r3, [r1]
 165 00de 1B78     		ldrb	r3, [r3]
 166 00e0 DAB2     		uxtb	r2, r3
 167 00e2 391C     		mov	r1, r7
 168 00e4 1431     		add	r1, r1, #20
 169 00e6 A820     		mov	r0, #168
 170 00e8 C019     		add	r0, r0, r7
 171 00ea 0368     		ldr	r3, [r0]
 172 00ec CB18     		add	r3, r1, r3
 173 00ee 1A70     		strb	r2, [r3]
 174              	.L7:
 161:.\Generated_Source\PSoC4/BLE_HAL_PVT.c ****                 }
 162:.\Generated_Source\PSoC4/BLE_HAL_PVT.c ****                 byteOffset++;
 175              		.loc 1 162 0
 176 00f0 9C21     		mov	r1, #156
 177 00f2 C919     		add	r1, r1, r7
 178 00f4 0B68     		ldr	r3, [r1]
 179 00f6 0133     		add	r3, r3, #1
 180 00f8 9C22     		mov	r2, #156
ARM GAS  C:\Users\xlin233\AppData\Local\Temp\ccmKiDS6.s 			page 7


 181 00fa D219     		add	r2, r2, r7
 182 00fc 1360     		str	r3, [r2]
 146:.\Generated_Source\PSoC4/BLE_HAL_PVT.c ****             for (dstIndex = 0u; dstIndex < CY_FLASH_SIZEOF_ROW; dstIndex++)
 183              		.loc 1 146 0
 184 00fe A820     		mov	r0, #168
 185 0100 C019     		add	r0, r0, r7
 186 0102 0368     		ldr	r3, [r0]
 187 0104 0133     		add	r3, r3, #1
 188 0106 A821     		mov	r1, #168
 189 0108 C919     		add	r1, r1, r7
 190 010a 0B60     		str	r3, [r1]
 191              	.L4:
 146:.\Generated_Source\PSoC4/BLE_HAL_PVT.c ****             for (dstIndex = 0u; dstIndex < CY_FLASH_SIZEOF_ROW; dstIndex++)
 192              		.loc 1 146 0 is_stmt 0 discriminator 1
 193 010c A822     		mov	r2, #168
 194 010e D219     		add	r2, r2, r7
 195 0110 1368     		ldr	r3, [r2]
 196 0112 7F2B     		cmp	r3, #127
 197 0114 A9D9     		bls	.L8
 163:.\Generated_Source\PSoC4/BLE_HAL_PVT.c ****             }
 164:.\Generated_Source\PSoC4/BLE_HAL_PVT.c **** 
 165:.\Generated_Source\PSoC4/BLE_HAL_PVT.c ****             if(rowsNotEqual != 0u)
 198              		.loc 1 165 0 is_stmt 1
 199 0116 9820     		mov	r0, #152
 200 0118 C019     		add	r0, r0, r7
 201 011a 0368     		ldr	r3, [r0]
 202 011c 002B     		cmp	r3, #0
 203 011e 0CD0     		beq	.L9
 166:.\Generated_Source\PSoC4/BLE_HAL_PVT.c ****             {
 167:.\Generated_Source\PSoC4/BLE_HAL_PVT.c ****                 /* Write flash row */
 168:.\Generated_Source\PSoC4/BLE_HAL_PVT.c ****                 rc = CySysFlashWriteRow(rowId, writeBuffer);
 204              		.loc 1 168 0
 205 0120 AC21     		mov	r1, #172
 206 0122 C919     		add	r1, r1, r7
 207 0124 0A68     		ldr	r2, [r1]
 208 0126 3B1C     		mov	r3, r7
 209 0128 1433     		add	r3, r3, #20
 210 012a 101C     		mov	r0, r2
 211 012c 191C     		mov	r1, r3
 212 012e FFF7FEFF 		bl	CySysFlashWriteRow
 213 0132 031C     		mov	r3, r0
 214 0134 A022     		mov	r2, #160
 215 0136 D219     		add	r2, r2, r7
 216 0138 1360     		str	r3, [r2]
 217              	.L9:
 169:.\Generated_Source\PSoC4/BLE_HAL_PVT.c ****             }
 170:.\Generated_Source\PSoC4/BLE_HAL_PVT.c **** 
 171:.\Generated_Source\PSoC4/BLE_HAL_PVT.c ****             /* Go to the next row */
 172:.\Generated_Source\PSoC4/BLE_HAL_PVT.c ****             rowId++;
 218              		.loc 1 172 0
 219 013a AC20     		mov	r0, #172
 220 013c C019     		add	r0, r0, r7
 221 013e 0368     		ldr	r3, [r0]
 222 0140 0133     		add	r3, r3, #1
 223 0142 AC21     		mov	r1, #172
 224 0144 C919     		add	r1, r1, r7
 225 0146 0B60     		str	r3, [r1]
ARM GAS  C:\Users\xlin233\AppData\Local\Temp\ccmKiDS6.s 			page 8


 226              	.L3:
 142:.\Generated_Source\PSoC4/BLE_HAL_PVT.c ****         while ((srcIndex < length) && (CYRET_SUCCESS == rc))
 227              		.loc 1 142 0 discriminator 1
 228 0148 BB1D     		add	r3, r7, #6
 229 014a 1A88     		ldrh	r2, [r3]
 230 014c A420     		mov	r0, #164
 231 014e C019     		add	r0, r0, r7
 232 0150 0368     		ldr	r3, [r0]
 233 0152 9A42     		cmp	r2, r3
 234 0154 0AD9     		bls	.L10
 142:.\Generated_Source\PSoC4/BLE_HAL_PVT.c ****         while ((srcIndex < length) && (CYRET_SUCCESS == rc))
 235              		.loc 1 142 0 is_stmt 0 discriminator 2
 236 0156 A021     		mov	r1, #160
 237 0158 C919     		add	r1, r1, r7
 238 015a 0B68     		ldr	r3, [r1]
 239 015c 002B     		cmp	r3, #0
 240 015e 00D1     		bne	.LCB201
 241 0160 7AE7     		b	.L11	@long jump
 242              	.LCB201:
 243 0162 03E0     		b	.L10
 244              	.L2:
 173:.\Generated_Source\PSoC4/BLE_HAL_PVT.c ****         }
 174:.\Generated_Source\PSoC4/BLE_HAL_PVT.c ****     }
 175:.\Generated_Source\PSoC4/BLE_HAL_PVT.c ****     else
 176:.\Generated_Source\PSoC4/BLE_HAL_PVT.c ****     {
 177:.\Generated_Source\PSoC4/BLE_HAL_PVT.c ****         rc = CYRET_BAD_PARAM;
 245              		.loc 1 177 0 is_stmt 1
 246 0164 0123     		mov	r3, #1
 247 0166 A022     		mov	r2, #160
 248 0168 D219     		add	r2, r2, r7
 249 016a 1360     		str	r3, [r2]
 250              	.L10:
 178:.\Generated_Source\PSoC4/BLE_HAL_PVT.c ****     }
 179:.\Generated_Source\PSoC4/BLE_HAL_PVT.c **** 
 180:.\Generated_Source\PSoC4/BLE_HAL_PVT.c ****     /* Mask return codes from flash, if they are not supported */
 181:.\Generated_Source\PSoC4/BLE_HAL_PVT.c ****     if ((CYRET_SUCCESS != rc) && (CYRET_BAD_PARAM != rc))
 251              		.loc 1 181 0
 252 016c A020     		mov	r0, #160
 253 016e C019     		add	r0, r0, r7
 254 0170 0368     		ldr	r3, [r0]
 255 0172 002B     		cmp	r3, #0
 256 0174 09D0     		beq	.L12
 257              		.loc 1 181 0 is_stmt 0 discriminator 1
 258 0176 A021     		mov	r1, #160
 259 0178 C919     		add	r1, r1, r7
 260 017a 0B68     		ldr	r3, [r1]
 261 017c 012B     		cmp	r3, #1
 262 017e 04D0     		beq	.L12
 182:.\Generated_Source\PSoC4/BLE_HAL_PVT.c ****     {
 183:.\Generated_Source\PSoC4/BLE_HAL_PVT.c ****         rc = CYRET_UNKNOWN;
 263              		.loc 1 183 0 is_stmt 1
 264 0180 0123     		mov	r3, #1
 265 0182 5B42     		neg	r3, r3
 266 0184 A022     		mov	r2, #160
 267 0186 D219     		add	r2, r2, r7
 268 0188 1360     		str	r3, [r2]
 269              	.L12:
ARM GAS  C:\Users\xlin233\AppData\Local\Temp\ccmKiDS6.s 			page 9


 184:.\Generated_Source\PSoC4/BLE_HAL_PVT.c ****     }
 185:.\Generated_Source\PSoC4/BLE_HAL_PVT.c ****     
 186:.\Generated_Source\PSoC4/BLE_HAL_PVT.c ****     return (rc);
 270              		.loc 1 186 0
 271 018a A020     		mov	r0, #160
 272 018c C019     		add	r0, r0, r7
 273 018e 0368     		ldr	r3, [r0]
 187:.\Generated_Source\PSoC4/BLE_HAL_PVT.c **** }
 274              		.loc 1 187 0
 275 0190 181C     		mov	r0, r3
 276 0192 BD46     		mov	sp, r7
 277 0194 2CB0     		add	sp, sp, #176
 278              		@ sp needed
 279 0196 80BD     		pop	{r7, pc}
 280              	.L15:
 281              		.align	2
 282              	.L14:
 283 0198 FFFF0100 		.word	131071
 284              		.cfi_endproc
 285              	.LFE2:
 286              		.size	CyBLE_Nvram_Write, .-CyBLE_Nvram_Write
 287              		.section	.text.CyBLE_Nvram_Erase,"ax",%progbits
 288              		.align	2
 289              		.global	CyBLE_Nvram_Erase
 290              		.code	16
 291              		.thumb_func
 292              		.type	CyBLE_Nvram_Erase, %function
 293              	CyBLE_Nvram_Erase:
 294              	.LFB3:
 188:.\Generated_Source\PSoC4/BLE_HAL_PVT.c **** 
 189:.\Generated_Source\PSoC4/BLE_HAL_PVT.c **** /*******************************************************************************
 190:.\Generated_Source\PSoC4/BLE_HAL_PVT.c **** * Function Name: CyBLE_Nvram_Erase
 191:.\Generated_Source\PSoC4/BLE_HAL_PVT.c **** ********************************************************************************
 192:.\Generated_Source\PSoC4/BLE_HAL_PVT.c **** *
 193:.\Generated_Source\PSoC4/BLE_HAL_PVT.c **** * Summary:
 194:.\Generated_Source\PSoC4/BLE_HAL_PVT.c **** *  This API erases the data from the NVRAM store. This API will perform an 
 195:.\Generated_Source\PSoC4/BLE_HAL_PVT.c **** *  address range check based on the length before performing erase operation.
 196:.\Generated_Source\PSoC4/BLE_HAL_PVT.c **** *
 197:.\Generated_Source\PSoC4/BLE_HAL_PVT.c **** * Parameters:
 198:.\Generated_Source\PSoC4/BLE_HAL_PVT.c **** *  const uint8 *varFlash: the pointer to the array or variable in the flash.
 199:.\Generated_Source\PSoC4/BLE_HAL_PVT.c **** *  uint16 length: the length of the data in bytes.
 200:.\Generated_Source\PSoC4/BLE_HAL_PVT.c **** *
 201:.\Generated_Source\PSoC4/BLE_HAL_PVT.c **** * Return:
 202:.\Generated_Source\PSoC4/BLE_HAL_PVT.c **** *  CYRET_SUCCESS    a successful write
 203:.\Generated_Source\PSoC4/BLE_HAL_PVT.c **** *  CYRET_BAD_PARAM  A request to write outside the flash boundary.
 204:.\Generated_Source\PSoC4/BLE_HAL_PVT.c **** *  CYRET_UNKNOWN    Other errors in writing the flash
 205:.\Generated_Source\PSoC4/BLE_HAL_PVT.c **** *
 206:.\Generated_Source\PSoC4/BLE_HAL_PVT.c **** *******************************************************************************/
 207:.\Generated_Source\PSoC4/BLE_HAL_PVT.c **** cystatus CyBLE_Nvram_Erase (const uint8 *varFlash, uint16 length)
 208:.\Generated_Source\PSoC4/BLE_HAL_PVT.c **** {
 295              		.loc 1 208 0
 296              		.cfi_startproc
 297 0000 80B5     		push	{r7, lr}
 298              		.cfi_def_cfa_offset 8
 299              		.cfi_offset 7, -8
 300              		.cfi_offset 14, -4
 301 0002 A6B0     		sub	sp, sp, #152
ARM GAS  C:\Users\xlin233\AppData\Local\Temp\ccmKiDS6.s 			page 10


 302              		.cfi_def_cfa_offset 160
 303 0004 00AF     		add	r7, sp, #0
 304              		.cfi_def_cfa_register 7
 305 0006 7860     		str	r0, [r7, #4]
 306 0008 0A1C     		mov	r2, r1
 307 000a BB1C     		add	r3, r7, #2
 308 000c 1A80     		strh	r2, [r3]
 209:.\Generated_Source\PSoC4/BLE_HAL_PVT.c ****     const uint8 *tempFlash;
 210:.\Generated_Source\PSoC4/BLE_HAL_PVT.c ****     uint8 flashBuffer[CY_FLASH_SIZEOF_ROW] = {0u};
 309              		.loc 1 210 0
 310 000e 3B1C     		mov	r3, r7
 311 0010 0C33     		add	r3, r3, #12
 312 0012 1A1C     		mov	r2, r3
 313 0014 8023     		mov	r3, #128
 314 0016 101C     		mov	r0, r2
 315 0018 0021     		mov	r1, #0
 316 001a 1A1C     		mov	r2, r3
 317 001c FFF7FEFF 		bl	memset
 211:.\Generated_Source\PSoC4/BLE_HAL_PVT.c ****     uint16 lengthFlash;
 212:.\Generated_Source\PSoC4/BLE_HAL_PVT.c ****     uint16 lengthRemaining;
 213:.\Generated_Source\PSoC4/BLE_HAL_PVT.c ****     cystatus rc = CYRET_UNKNOWN;
 318              		.loc 1 213 0
 319 0020 0123     		mov	r3, #1
 320 0022 5B42     		neg	r3, r3
 321 0024 8C22     		mov	r2, #140
 322 0026 D219     		add	r2, r2, r7
 323 0028 1360     		str	r3, [r2]
 214:.\Generated_Source\PSoC4/BLE_HAL_PVT.c **** 
 215:.\Generated_Source\PSoC4/BLE_HAL_PVT.c ****     tempFlash = varFlash;
 324              		.loc 1 215 0
 325 002a 7B68     		ldr	r3, [r7, #4]
 326 002c 9422     		mov	r2, #148
 327 002e D219     		add	r2, r2, r7
 328 0030 1360     		str	r3, [r2]
 216:.\Generated_Source\PSoC4/BLE_HAL_PVT.c ****     lengthRemaining = length;
 329              		.loc 1 216 0
 330 0032 3B1C     		mov	r3, r7
 331 0034 9033     		add	r3, r3, #144
 332 0036 BA1C     		add	r2, r7, #2
 333 0038 1288     		ldrh	r2, [r2]
 334 003a 1A80     		strh	r2, [r3]
 217:.\Generated_Source\PSoC4/BLE_HAL_PVT.c **** 
 218:.\Generated_Source\PSoC4/BLE_HAL_PVT.c ****     while(lengthRemaining > 0u)
 335              		.loc 1 218 0
 336 003c 37E0     		b	.L17
 337              	.L22:
 219:.\Generated_Source\PSoC4/BLE_HAL_PVT.c ****     {
 220:.\Generated_Source\PSoC4/BLE_HAL_PVT.c ****         if(lengthRemaining < CY_FLASH_SIZEOF_ROW)
 338              		.loc 1 220 0
 339 003e 3B1C     		mov	r3, r7
 340 0040 9033     		add	r3, r3, #144
 341 0042 1B88     		ldrh	r3, [r3]
 342 0044 7F2B     		cmp	r3, #127
 343 0046 06D8     		bhi	.L18
 221:.\Generated_Source\PSoC4/BLE_HAL_PVT.c ****         {
 222:.\Generated_Source\PSoC4/BLE_HAL_PVT.c ****             lengthFlash = lengthRemaining;
 344              		.loc 1 222 0
ARM GAS  C:\Users\xlin233\AppData\Local\Temp\ccmKiDS6.s 			page 11


 345 0048 3B1C     		mov	r3, r7
 346 004a 9233     		add	r3, r3, #146
 347 004c 3A1C     		mov	r2, r7
 348 004e 9032     		add	r2, r2, #144
 349 0050 1288     		ldrh	r2, [r2]
 350 0052 1A80     		strh	r2, [r3]
 351 0054 03E0     		b	.L19
 352              	.L18:
 223:.\Generated_Source\PSoC4/BLE_HAL_PVT.c ****         }
 224:.\Generated_Source\PSoC4/BLE_HAL_PVT.c ****         else
 225:.\Generated_Source\PSoC4/BLE_HAL_PVT.c ****         {
 226:.\Generated_Source\PSoC4/BLE_HAL_PVT.c ****             lengthFlash = CY_FLASH_SIZEOF_ROW;
 353              		.loc 1 226 0
 354 0056 3B1C     		mov	r3, r7
 355 0058 9233     		add	r3, r3, #146
 356 005a 8022     		mov	r2, #128
 357 005c 1A80     		strh	r2, [r3]
 358              	.L19:
 227:.\Generated_Source\PSoC4/BLE_HAL_PVT.c ****         }
 228:.\Generated_Source\PSoC4/BLE_HAL_PVT.c ****         rc = CyBLE_Nvram_Write(flashBuffer, tempFlash, lengthFlash);
 359              		.loc 1 228 0
 360 005e 391C     		mov	r1, r7
 361 0060 0C31     		add	r1, r1, #12
 362 0062 9423     		mov	r3, #148
 363 0064 DB19     		add	r3, r3, r7
 364 0066 1A68     		ldr	r2, [r3]
 365 0068 3B1C     		mov	r3, r7
 366 006a 9233     		add	r3, r3, #146
 367 006c 1B88     		ldrh	r3, [r3]
 368 006e 081C     		mov	r0, r1
 369 0070 111C     		mov	r1, r2
 370 0072 1A1C     		mov	r2, r3
 371 0074 FFF7FEFF 		bl	CyBLE_Nvram_Write
 372 0078 031C     		mov	r3, r0
 373 007a 8C22     		mov	r2, #140
 374 007c D219     		add	r2, r2, r7
 375 007e 1360     		str	r3, [r2]
 229:.\Generated_Source\PSoC4/BLE_HAL_PVT.c ****         if(rc != CYRET_SUCCESS)
 376              		.loc 1 229 0
 377 0080 8C22     		mov	r2, #140
 378 0082 D219     		add	r2, r2, r7
 379 0084 1368     		ldr	r3, [r2]
 380 0086 002B     		cmp	r3, #0
 381 0088 00D0     		beq	.L20
 230:.\Generated_Source\PSoC4/BLE_HAL_PVT.c ****         {
 231:.\Generated_Source\PSoC4/BLE_HAL_PVT.c ****             break;
 382              		.loc 1 231 0
 383 008a 15E0     		b	.L21
 384              	.L20:
 232:.\Generated_Source\PSoC4/BLE_HAL_PVT.c ****         }
 233:.\Generated_Source\PSoC4/BLE_HAL_PVT.c ****         tempFlash += CY_FLASH_SIZEOF_ROW;
 385              		.loc 1 233 0
 386 008c 9422     		mov	r2, #148
 387 008e D219     		add	r2, r2, r7
 388 0090 1368     		ldr	r3, [r2]
 389 0092 8033     		add	r3, r3, #128
 390 0094 9422     		mov	r2, #148
ARM GAS  C:\Users\xlin233\AppData\Local\Temp\ccmKiDS6.s 			page 12


 391 0096 D219     		add	r2, r2, r7
 392 0098 1360     		str	r3, [r2]
 234:.\Generated_Source\PSoC4/BLE_HAL_PVT.c ****         lengthRemaining -= lengthFlash;
 393              		.loc 1 234 0
 394 009a 3B1C     		mov	r3, r7
 395 009c 9033     		add	r3, r3, #144
 396 009e 391C     		mov	r1, r7
 397 00a0 9031     		add	r1, r1, #144
 398 00a2 3A1C     		mov	r2, r7
 399 00a4 9232     		add	r2, r2, #146
 400 00a6 0988     		ldrh	r1, [r1]
 401 00a8 1288     		ldrh	r2, [r2]
 402 00aa 8A1A     		sub	r2, r1, r2
 403 00ac 1A80     		strh	r2, [r3]
 404              	.L17:
 218:.\Generated_Source\PSoC4/BLE_HAL_PVT.c ****     while(lengthRemaining > 0u)
 405              		.loc 1 218 0 discriminator 1
 406 00ae 3B1C     		mov	r3, r7
 407 00b0 9033     		add	r3, r3, #144
 408 00b2 1B88     		ldrh	r3, [r3]
 409 00b4 002B     		cmp	r3, #0
 410 00b6 C2D1     		bne	.L22
 411              	.L21:
 235:.\Generated_Source\PSoC4/BLE_HAL_PVT.c ****     }
 236:.\Generated_Source\PSoC4/BLE_HAL_PVT.c **** 
 237:.\Generated_Source\PSoC4/BLE_HAL_PVT.c ****     return rc;
 412              		.loc 1 237 0
 413 00b8 8C22     		mov	r2, #140
 414 00ba D219     		add	r2, r2, r7
 415 00bc 1368     		ldr	r3, [r2]
 238:.\Generated_Source\PSoC4/BLE_HAL_PVT.c **** }
 416              		.loc 1 238 0
 417 00be 181C     		mov	r0, r3
 418 00c0 BD46     		mov	sp, r7
 419 00c2 26B0     		add	sp, sp, #152
 420              		@ sp needed
 421 00c4 80BD     		pop	{r7, pc}
 422              		.cfi_endproc
 423              	.LFE3:
 424              		.size	CyBLE_Nvram_Erase, .-CyBLE_Nvram_Erase
 425 00c6 C046     		.section	.text.CyBLE_Bless_LlRegRead,"ax",%progbits
 426              		.align	2
 427              		.global	CyBLE_Bless_LlRegRead
 428              		.code	16
 429              		.thumb_func
 430              		.type	CyBLE_Bless_LlRegRead, %function
 431              	CyBLE_Bless_LlRegRead:
 432              	.LFB4:
 239:.\Generated_Source\PSoC4/BLE_HAL_PVT.c **** 
 240:.\Generated_Source\PSoC4/BLE_HAL_PVT.c **** 
 241:.\Generated_Source\PSoC4/BLE_HAL_PVT.c **** /*******************************************************************************
 242:.\Generated_Source\PSoC4/BLE_HAL_PVT.c **** * Function Name: CyBLE_Bless_LlRegRead
 243:.\Generated_Source\PSoC4/BLE_HAL_PVT.c **** ********************************************************************************
 244:.\Generated_Source\PSoC4/BLE_HAL_PVT.c **** *
 245:.\Generated_Source\PSoC4/BLE_HAL_PVT.c **** * Summary:
 246:.\Generated_Source\PSoC4/BLE_HAL_PVT.c **** *  This API reads the content of the BLESS Link Layer register from the stack.
 247:.\Generated_Source\PSoC4/BLE_HAL_PVT.c **** *
ARM GAS  C:\Users\xlin233\AppData\Local\Temp\ccmKiDS6.s 			page 13


 248:.\Generated_Source\PSoC4/BLE_HAL_PVT.c **** * Parameters:
 249:.\Generated_Source\PSoC4/BLE_HAL_PVT.c **** *  uint32 *blessAddr: the pointer to the BLESS link layer address.
 250:.\Generated_Source\PSoC4/BLE_HAL_PVT.c **** *  uint16 *regValue: the pointer to the buffer space to copy the read value.
 251:.\Generated_Source\PSoC4/BLE_HAL_PVT.c **** *
 252:.\Generated_Source\PSoC4/BLE_HAL_PVT.c **** * Return:
 253:.\Generated_Source\PSoC4/BLE_HAL_PVT.c **** *  None
 254:.\Generated_Source\PSoC4/BLE_HAL_PVT.c **** *
 255:.\Generated_Source\PSoC4/BLE_HAL_PVT.c **** *******************************************************************************/
 256:.\Generated_Source\PSoC4/BLE_HAL_PVT.c **** void CyBLE_Bless_LlRegRead (const reg32 *blessAddr, uint16 *regValue)
 257:.\Generated_Source\PSoC4/BLE_HAL_PVT.c **** {
 433              		.loc 1 257 0
 434              		.cfi_startproc
 435 0000 80B5     		push	{r7, lr}
 436              		.cfi_def_cfa_offset 8
 437              		.cfi_offset 7, -8
 438              		.cfi_offset 14, -4
 439 0002 82B0     		sub	sp, sp, #8
 440              		.cfi_def_cfa_offset 16
 441 0004 00AF     		add	r7, sp, #0
 442              		.cfi_def_cfa_register 7
 443 0006 7860     		str	r0, [r7, #4]
 444 0008 3960     		str	r1, [r7]
 258:.\Generated_Source\PSoC4/BLE_HAL_PVT.c ****     *regValue = (uint16)CY_GET_REG32(blessAddr);
 445              		.loc 1 258 0
 446 000a 7B68     		ldr	r3, [r7, #4]
 447 000c 1B68     		ldr	r3, [r3]
 448 000e 9AB2     		uxth	r2, r3
 449 0010 3B68     		ldr	r3, [r7]
 450 0012 1A80     		strh	r2, [r3]
 259:.\Generated_Source\PSoC4/BLE_HAL_PVT.c **** }
 451              		.loc 1 259 0
 452 0014 BD46     		mov	sp, r7
 453 0016 02B0     		add	sp, sp, #8
 454              		@ sp needed
 455 0018 80BD     		pop	{r7, pc}
 456              		.cfi_endproc
 457              	.LFE4:
 458              		.size	CyBLE_Bless_LlRegRead, .-CyBLE_Bless_LlRegRead
 459 001a C046     		.section	.text.CyBLE_Bless_LlRegWrite,"ax",%progbits
 460              		.align	2
 461              		.global	CyBLE_Bless_LlRegWrite
 462              		.code	16
 463              		.thumb_func
 464              		.type	CyBLE_Bless_LlRegWrite, %function
 465              	CyBLE_Bless_LlRegWrite:
 466              	.LFB5:
 260:.\Generated_Source\PSoC4/BLE_HAL_PVT.c **** 
 261:.\Generated_Source\PSoC4/BLE_HAL_PVT.c **** 
 262:.\Generated_Source\PSoC4/BLE_HAL_PVT.c **** /*******************************************************************************
 263:.\Generated_Source\PSoC4/BLE_HAL_PVT.c **** * Function Name: CyBLE_Bless_LlRegWrite
 264:.\Generated_Source\PSoC4/BLE_HAL_PVT.c **** ********************************************************************************
 265:.\Generated_Source\PSoC4/BLE_HAL_PVT.c **** *
 266:.\Generated_Source\PSoC4/BLE_HAL_PVT.c **** * Summary:
 267:.\Generated_Source\PSoC4/BLE_HAL_PVT.c **** *  This API writes to the BLESS Link Layer register from the stack.
 268:.\Generated_Source\PSoC4/BLE_HAL_PVT.c **** *
 269:.\Generated_Source\PSoC4/BLE_HAL_PVT.c **** * Parameters:
 270:.\Generated_Source\PSoC4/BLE_HAL_PVT.c **** *  uint32 *blessAddr: the pointer to the BLESS link layer address.
ARM GAS  C:\Users\xlin233\AppData\Local\Temp\ccmKiDS6.s 			page 14


 271:.\Generated_Source\PSoC4/BLE_HAL_PVT.c **** *  uint16 regValue: the pointer to the value to be written to the BLESS LL reg.
 272:.\Generated_Source\PSoC4/BLE_HAL_PVT.c **** *
 273:.\Generated_Source\PSoC4/BLE_HAL_PVT.c **** * Return:
 274:.\Generated_Source\PSoC4/BLE_HAL_PVT.c **** *  None
 275:.\Generated_Source\PSoC4/BLE_HAL_PVT.c **** *
 276:.\Generated_Source\PSoC4/BLE_HAL_PVT.c **** *******************************************************************************/
 277:.\Generated_Source\PSoC4/BLE_HAL_PVT.c **** void CyBLE_Bless_LlRegWrite (reg32 *blessAddr, const uint16 regValue)
 278:.\Generated_Source\PSoC4/BLE_HAL_PVT.c **** {
 467              		.loc 1 278 0
 468              		.cfi_startproc
 469 0000 80B5     		push	{r7, lr}
 470              		.cfi_def_cfa_offset 8
 471              		.cfi_offset 7, -8
 472              		.cfi_offset 14, -4
 473 0002 82B0     		sub	sp, sp, #8
 474              		.cfi_def_cfa_offset 16
 475 0004 00AF     		add	r7, sp, #0
 476              		.cfi_def_cfa_register 7
 477 0006 7860     		str	r0, [r7, #4]
 478 0008 0A1C     		mov	r2, r1
 479 000a BB1C     		add	r3, r7, #2
 480 000c 1A80     		strh	r2, [r3]
 279:.\Generated_Source\PSoC4/BLE_HAL_PVT.c ****     CY_SET_REG32(blessAddr, regValue);
 481              		.loc 1 279 0
 482 000e BB1C     		add	r3, r7, #2
 483 0010 1A88     		ldrh	r2, [r3]
 484 0012 7B68     		ldr	r3, [r7, #4]
 485 0014 1A60     		str	r2, [r3]
 280:.\Generated_Source\PSoC4/BLE_HAL_PVT.c **** }
 486              		.loc 1 280 0
 487 0016 BD46     		mov	sp, r7
 488 0018 02B0     		add	sp, sp, #8
 489              		@ sp needed
 490 001a 80BD     		pop	{r7, pc}
 491              		.cfi_endproc
 492              	.LFE5:
 493              		.size	CyBLE_Bless_LlRegWrite, .-CyBLE_Bless_LlRegWrite
 494              		.section	.text.CyBLE_Bless_RfRegRead,"ax",%progbits
 495              		.align	2
 496              		.global	CyBLE_Bless_RfRegRead
 497              		.code	16
 498              		.thumb_func
 499              		.type	CyBLE_Bless_RfRegRead, %function
 500              	CyBLE_Bless_RfRegRead:
 501              	.LFB6:
 281:.\Generated_Source\PSoC4/BLE_HAL_PVT.c **** 
 282:.\Generated_Source\PSoC4/BLE_HAL_PVT.c **** 
 283:.\Generated_Source\PSoC4/BLE_HAL_PVT.c **** /*******************************************************************************
 284:.\Generated_Source\PSoC4/BLE_HAL_PVT.c **** * Function Name: CyBLE_Bless_RfRegRead
 285:.\Generated_Source\PSoC4/BLE_HAL_PVT.c **** ********************************************************************************
 286:.\Generated_Source\PSoC4/BLE_HAL_PVT.c **** *
 287:.\Generated_Source\PSoC4/BLE_HAL_PVT.c **** * Summary:
 288:.\Generated_Source\PSoC4/BLE_HAL_PVT.c **** *  This API reads the content of the BLESS RF register from the stack.
 289:.\Generated_Source\PSoC4/BLE_HAL_PVT.c **** *
 290:.\Generated_Source\PSoC4/BLE_HAL_PVT.c **** * Parameters:
 291:.\Generated_Source\PSoC4/BLE_HAL_PVT.c **** *  uint32 *blessAddr: the pointer to BLESS RF register address.
 292:.\Generated_Source\PSoC4/BLE_HAL_PVT.c **** *  uint16 *regValue: the pointer to the buffer space to copy the read value.
ARM GAS  C:\Users\xlin233\AppData\Local\Temp\ccmKiDS6.s 			page 15


 293:.\Generated_Source\PSoC4/BLE_HAL_PVT.c **** *
 294:.\Generated_Source\PSoC4/BLE_HAL_PVT.c **** * Return:
 295:.\Generated_Source\PSoC4/BLE_HAL_PVT.c **** *  None
 296:.\Generated_Source\PSoC4/BLE_HAL_PVT.c **** *
 297:.\Generated_Source\PSoC4/BLE_HAL_PVT.c **** *******************************************************************************/
 298:.\Generated_Source\PSoC4/BLE_HAL_PVT.c **** void CyBLE_Bless_RfRegRead (const reg32 *blessAddr, uint16 *regValue)
 299:.\Generated_Source\PSoC4/BLE_HAL_PVT.c **** {
 502              		.loc 1 299 0
 503              		.cfi_startproc
 504 0000 80B5     		push	{r7, lr}
 505              		.cfi_def_cfa_offset 8
 506              		.cfi_offset 7, -8
 507              		.cfi_offset 14, -4
 508 0002 82B0     		sub	sp, sp, #8
 509              		.cfi_def_cfa_offset 16
 510 0004 00AF     		add	r7, sp, #0
 511              		.cfi_def_cfa_register 7
 512 0006 7860     		str	r0, [r7, #4]
 513 0008 3960     		str	r1, [r7]
 300:.\Generated_Source\PSoC4/BLE_HAL_PVT.c ****     *regValue = (uint16)CY_GET_REG32(blessAddr);
 514              		.loc 1 300 0
 515 000a 7B68     		ldr	r3, [r7, #4]
 516 000c 1B68     		ldr	r3, [r3]
 517 000e 9AB2     		uxth	r2, r3
 518 0010 3B68     		ldr	r3, [r7]
 519 0012 1A80     		strh	r2, [r3]
 301:.\Generated_Source\PSoC4/BLE_HAL_PVT.c **** }
 520              		.loc 1 301 0
 521 0014 BD46     		mov	sp, r7
 522 0016 02B0     		add	sp, sp, #8
 523              		@ sp needed
 524 0018 80BD     		pop	{r7, pc}
 525              		.cfi_endproc
 526              	.LFE6:
 527              		.size	CyBLE_Bless_RfRegRead, .-CyBLE_Bless_RfRegRead
 528 001a C046     		.section	.text.CyBLE_Bless_RfRegWrite,"ax",%progbits
 529              		.align	2
 530              		.global	CyBLE_Bless_RfRegWrite
 531              		.code	16
 532              		.thumb_func
 533              		.type	CyBLE_Bless_RfRegWrite, %function
 534              	CyBLE_Bless_RfRegWrite:
 535              	.LFB7:
 302:.\Generated_Source\PSoC4/BLE_HAL_PVT.c **** 
 303:.\Generated_Source\PSoC4/BLE_HAL_PVT.c **** 
 304:.\Generated_Source\PSoC4/BLE_HAL_PVT.c **** /*******************************************************************************
 305:.\Generated_Source\PSoC4/BLE_HAL_PVT.c **** * Function Name: CyBLE_Bless_RfRegWrite
 306:.\Generated_Source\PSoC4/BLE_HAL_PVT.c **** ********************************************************************************
 307:.\Generated_Source\PSoC4/BLE_HAL_PVT.c **** *
 308:.\Generated_Source\PSoC4/BLE_HAL_PVT.c **** * Summary:
 309:.\Generated_Source\PSoC4/BLE_HAL_PVT.c **** *  This API writes to the BLESS RF register from the stack.
 310:.\Generated_Source\PSoC4/BLE_HAL_PVT.c **** *
 311:.\Generated_Source\PSoC4/BLE_HAL_PVT.c **** * Parameters:
 312:.\Generated_Source\PSoC4/BLE_HAL_PVT.c **** *  uint32 *blessAddr: the pointer to the BLESS RF address.
 313:.\Generated_Source\PSoC4/BLE_HAL_PVT.c **** *  uint16 regValue: the pointer to the value to be written to the BLESS RF reg.
 314:.\Generated_Source\PSoC4/BLE_HAL_PVT.c **** *
 315:.\Generated_Source\PSoC4/BLE_HAL_PVT.c **** * Return:
ARM GAS  C:\Users\xlin233\AppData\Local\Temp\ccmKiDS6.s 			page 16


 316:.\Generated_Source\PSoC4/BLE_HAL_PVT.c **** *  None
 317:.\Generated_Source\PSoC4/BLE_HAL_PVT.c **** *
 318:.\Generated_Source\PSoC4/BLE_HAL_PVT.c **** *******************************************************************************/
 319:.\Generated_Source\PSoC4/BLE_HAL_PVT.c **** void CyBLE_Bless_RfRegWrite (reg32 *blessAddr, const uint16 regValue)
 320:.\Generated_Source\PSoC4/BLE_HAL_PVT.c **** {
 536              		.loc 1 320 0
 537              		.cfi_startproc
 538 0000 80B5     		push	{r7, lr}
 539              		.cfi_def_cfa_offset 8
 540              		.cfi_offset 7, -8
 541              		.cfi_offset 14, -4
 542 0002 82B0     		sub	sp, sp, #8
 543              		.cfi_def_cfa_offset 16
 544 0004 00AF     		add	r7, sp, #0
 545              		.cfi_def_cfa_register 7
 546 0006 7860     		str	r0, [r7, #4]
 547 0008 0A1C     		mov	r2, r1
 548 000a BB1C     		add	r3, r7, #2
 549 000c 1A80     		strh	r2, [r3]
 321:.\Generated_Source\PSoC4/BLE_HAL_PVT.c ****      CY_SET_REG32(blessAddr, regValue);
 550              		.loc 1 321 0
 551 000e BB1C     		add	r3, r7, #2
 552 0010 1A88     		ldrh	r2, [r3]
 553 0012 7B68     		ldr	r3, [r7, #4]
 554 0014 1A60     		str	r2, [r3]
 322:.\Generated_Source\PSoC4/BLE_HAL_PVT.c **** }
 555              		.loc 1 322 0
 556 0016 BD46     		mov	sp, r7
 557 0018 02B0     		add	sp, sp, #8
 558              		@ sp needed
 559 001a 80BD     		pop	{r7, pc}
 560              		.cfi_endproc
 561              	.LFE7:
 562              		.size	CyBLE_Bless_RfRegWrite, .-CyBLE_Bless_RfRegWrite
 563              		.section	.text.CyBLE_BlessDeviceConfig,"ax",%progbits
 564              		.align	2
 565              		.global	CyBLE_BlessDeviceConfig
 566              		.code	16
 567              		.thumb_func
 568              		.type	CyBLE_BlessDeviceConfig, %function
 569              	CyBLE_BlessDeviceConfig:
 570              	.LFB8:
 323:.\Generated_Source\PSoC4/BLE_HAL_PVT.c **** 
 324:.\Generated_Source\PSoC4/BLE_HAL_PVT.c **** 
 325:.\Generated_Source\PSoC4/BLE_HAL_PVT.c **** void CyBLE_BlessDeviceConfig(void)
 326:.\Generated_Source\PSoC4/BLE_HAL_PVT.c **** {
 571              		.loc 1 326 0
 572              		.cfi_startproc
 573 0000 80B5     		push	{r7, lr}
 574              		.cfi_def_cfa_offset 8
 575              		.cfi_offset 7, -8
 576              		.cfi_offset 14, -4
 577 0002 82B0     		sub	sp, sp, #8
 578              		.cfi_def_cfa_offset 16
 579 0004 00AF     		add	r7, sp, #0
 580              		.cfi_def_cfa_register 7
 327:.\Generated_Source\PSoC4/BLE_HAL_PVT.c ****     uint32 trimRegValue;
ARM GAS  C:\Users\xlin233\AppData\Local\Temp\ccmKiDS6.s 			page 17


 328:.\Generated_Source\PSoC4/BLE_HAL_PVT.c ****     uint32 ldo;
 329:.\Generated_Source\PSoC4/BLE_HAL_PVT.c **** 
 330:.\Generated_Source\PSoC4/BLE_HAL_PVT.c ****     trimRegValue = ((uint32)CYBLE_SFLASH_BLESS_BB_BUMP2_HIGH_REG << 8u) | CYBLE_SFLASH_BLESS_BB_BUM
 581              		.loc 1 330 0
 582 0006 304B     		ldr	r3, .L35
 583 0008 1B78     		ldrb	r3, [r3]
 584 000a DBB2     		uxtb	r3, r3
 585 000c 1A02     		lsl	r2, r3, #8
 586 000e 2F4B     		ldr	r3, .L35+4
 587 0010 1B78     		ldrb	r3, [r3]
 588 0012 DBB2     		uxtb	r3, r3
 589 0014 1343     		orr	r3, r2
 590 0016 7B60     		str	r3, [r7, #4]
 331:.\Generated_Source\PSoC4/BLE_HAL_PVT.c ****     ldo = ((uint32)CYBLE_SFLASH_BLESS_LDO_HIGH_REG << 8u) | CYBLE_SFLASH_BLESS_LDO_LOW_REG;
 591              		.loc 1 331 0
 592 0018 2D4B     		ldr	r3, .L35+8
 593 001a 1B78     		ldrb	r3, [r3]
 594 001c DBB2     		uxtb	r3, r3
 595 001e 1A02     		lsl	r2, r3, #8
 596 0020 2C4B     		ldr	r3, .L35+12
 597 0022 1B78     		ldrb	r3, [r3]
 598 0024 DBB2     		uxtb	r3, r3
 599 0026 1343     		orr	r3, r2
 600 0028 3B60     		str	r3, [r7]
 332:.\Generated_Source\PSoC4/BLE_HAL_PVT.c **** 
 333:.\Generated_Source\PSoC4/BLE_HAL_PVT.c ****     if ((ldo == CYBLE_SFLASH_BLERD_LDO_REG_VAL1) && (trimRegValue == CYBLE_SFLASH_BLERD_BB_BUMP2_RE
 601              		.loc 1 333 0
 602 002a 3A68     		ldr	r2, [r7]
 603 002c 2A4B     		ldr	r3, .L35+16
 604 002e 9A42     		cmp	r2, r3
 605 0030 07D1     		bne	.L29
 606              		.loc 1 333 0 is_stmt 0 discriminator 1
 607 0032 7B68     		ldr	r3, [r7, #4]
 608 0034 072B     		cmp	r3, #7
 609 0036 04D1     		bne	.L29
 334:.\Generated_Source\PSoC4/BLE_HAL_PVT.c ****     {
 335:.\Generated_Source\PSoC4/BLE_HAL_PVT.c ****         ldo = CYBLE_BLERD_LDO_REG_VAL_FINAL;
 610              		.loc 1 335 0 is_stmt 1
 611 0038 284B     		ldr	r3, .L35+20
 612 003a 3B60     		str	r3, [r7]
 336:.\Generated_Source\PSoC4/BLE_HAL_PVT.c ****         trimRegValue = CYBLE_BLERD_BB_BUMP2_REG_VAL_FINAL;
 613              		.loc 1 336 0
 614 003c 0423     		mov	r3, #4
 615 003e 7B60     		str	r3, [r7, #4]
 616 0040 09E0     		b	.L30
 617              	.L29:
 337:.\Generated_Source\PSoC4/BLE_HAL_PVT.c ****     }
 338:.\Generated_Source\PSoC4/BLE_HAL_PVT.c ****     else if ((ldo == CYBLE_SFLASH_BLERD_LDO_REG_VAL2) && (trimRegValue == CYBLE_BLERD_BB_BUMP2_REG_
 618              		.loc 1 338 0
 619 0042 3A68     		ldr	r2, [r7]
 620 0044 D423     		mov	r3, #212
 621 0046 1B01     		lsl	r3, r3, #4
 622 0048 9A42     		cmp	r2, r3
 623 004a 04D1     		bne	.L30
 624              		.loc 1 338 0 is_stmt 0 discriminator 1
 625 004c 7B68     		ldr	r3, [r7, #4]
 626 004e 042B     		cmp	r3, #4
ARM GAS  C:\Users\xlin233\AppData\Local\Temp\ccmKiDS6.s 			page 18


 627 0050 01D1     		bne	.L30
 339:.\Generated_Source\PSoC4/BLE_HAL_PVT.c ****     {
 340:.\Generated_Source\PSoC4/BLE_HAL_PVT.c ****         ldo = CYBLE_BLERD_LDO_REG_VAL_FINAL;
 628              		.loc 1 340 0 is_stmt 1
 629 0052 224B     		ldr	r3, .L35+20
 630 0054 3B60     		str	r3, [r7]
 631              	.L30:
 341:.\Generated_Source\PSoC4/BLE_HAL_PVT.c ****     }
 342:.\Generated_Source\PSoC4/BLE_HAL_PVT.c ****     else
 343:.\Generated_Source\PSoC4/BLE_HAL_PVT.c ****     {
 344:.\Generated_Source\PSoC4/BLE_HAL_PVT.c ****     }
 345:.\Generated_Source\PSoC4/BLE_HAL_PVT.c **** 
 346:.\Generated_Source\PSoC4/BLE_HAL_PVT.c ****     CYBLE_BLE_BLERD_LDO_REG = ldo;
 632              		.loc 1 346 0
 633 0056 224B     		ldr	r3, .L35+24
 634 0058 3A68     		ldr	r2, [r7]
 635 005a 1A60     		str	r2, [r3]
 347:.\Generated_Source\PSoC4/BLE_HAL_PVT.c ****     CYBLE_BLE_BLERD_BB_BUMP2_REG = trimRegValue;
 636              		.loc 1 347 0
 637 005c 214B     		ldr	r3, .L35+28
 638 005e 7A68     		ldr	r2, [r7, #4]
 639 0060 1A60     		str	r2, [r3]
 348:.\Generated_Source\PSoC4/BLE_HAL_PVT.c **** 
 349:.\Generated_Source\PSoC4/BLE_HAL_PVT.c ****     /* Edit only XTAL fast charge bit */
 350:.\Generated_Source\PSoC4/BLE_HAL_PVT.c ****     trimRegValue = ((uint32)CYBLE_SFLASH_BLESS_BB_XO_HIGH_REG << 8u) | CYBLE_SFLASH_BLESS_BB_XO_LOW
 640              		.loc 1 350 0
 641 0062 214B     		ldr	r3, .L35+32
 642 0064 1B78     		ldrb	r3, [r3]
 643 0066 DBB2     		uxtb	r3, r3
 644 0068 1A02     		lsl	r2, r3, #8
 645 006a 204B     		ldr	r3, .L35+36
 646 006c 1B78     		ldrb	r3, [r3]
 647 006e DBB2     		uxtb	r3, r3
 648 0070 1343     		orr	r3, r2
 649 0072 7B60     		str	r3, [r7, #4]
 351:.\Generated_Source\PSoC4/BLE_HAL_PVT.c **** 
 352:.\Generated_Source\PSoC4/BLE_HAL_PVT.c ****     if ((trimRegValue == CYBLE_SFLASH_BLERD_BB_XO_REG_VAL1) || (trimRegValue == CYBLE_SFLASH_BLERD_
 650              		.loc 1 352 0
 651 0074 7A68     		ldr	r2, [r7, #4]
 652 0076 8023     		mov	r3, #128
 653 0078 9B01     		lsl	r3, r3, #6
 654 007a 9A42     		cmp	r2, r3
 655 007c 02D0     		beq	.L31
 656              		.loc 1 352 0 is_stmt 0 discriminator 1
 657 007e 7B68     		ldr	r3, [r7, #4]
 658 0080 002B     		cmp	r3, #0
 659 0082 01D1     		bne	.L32
 660              	.L31:
 353:.\Generated_Source\PSoC4/BLE_HAL_PVT.c ****     {
 354:.\Generated_Source\PSoC4/BLE_HAL_PVT.c ****         trimRegValue = CYBLE_BLERD_BB_XO_REG_VAL_FINAL;
 661              		.loc 1 354 0 is_stmt 1
 662 0084 1A4B     		ldr	r3, .L35+40
 663 0086 7B60     		str	r3, [r7, #4]
 664              	.L32:
 355:.\Generated_Source\PSoC4/BLE_HAL_PVT.c ****     }
 356:.\Generated_Source\PSoC4/BLE_HAL_PVT.c ****     
 357:.\Generated_Source\PSoC4/BLE_HAL_PVT.c ****     CYBLE_BLE_BLERD_BB_XO_REG = trimRegValue;
ARM GAS  C:\Users\xlin233\AppData\Local\Temp\ccmKiDS6.s 			page 19


 665              		.loc 1 357 0
 666 0088 1A4B     		ldr	r3, .L35+44
 667 008a 7A68     		ldr	r2, [r7, #4]
 668 008c 1A60     		str	r2, [r3]
 358:.\Generated_Source\PSoC4/BLE_HAL_PVT.c ****     
 359:.\Generated_Source\PSoC4/BLE_HAL_PVT.c ****     trimRegValue = ((uint32)CYBLE_SFLASH_BLESS_SY_BUMP1_HIGH_REG << 8u) | CYBLE_SFLASH_BLESS_SY_BUM
 669              		.loc 1 359 0
 670 008e 1A4B     		ldr	r3, .L35+48
 671 0090 1B78     		ldrb	r3, [r3]
 672 0092 DBB2     		uxtb	r3, r3
 673 0094 1A02     		lsl	r2, r3, #8
 674 0096 194B     		ldr	r3, .L35+52
 675 0098 1B78     		ldrb	r3, [r3]
 676 009a DBB2     		uxtb	r3, r3
 677 009c 1343     		orr	r3, r2
 678 009e 7B60     		str	r3, [r7, #4]
 360:.\Generated_Source\PSoC4/BLE_HAL_PVT.c **** 
 361:.\Generated_Source\PSoC4/BLE_HAL_PVT.c ****     if ((trimRegValue == CYBLE_SFLASH_BLERD_SY_BUMP1_REG_VAL1) || 
 679              		.loc 1 361 0
 680 00a0 7A68     		ldr	r2, [r7, #4]
 681 00a2 174B     		ldr	r3, .L35+56
 682 00a4 9A42     		cmp	r2, r3
 683 00a6 06D0     		beq	.L33
 684              		.loc 1 361 0 is_stmt 0 discriminator 1
 685 00a8 7A68     		ldr	r2, [r7, #4]
 686 00aa 164B     		ldr	r3, .L35+60
 687 00ac 9A42     		cmp	r2, r3
 688 00ae 02D0     		beq	.L33
 362:.\Generated_Source\PSoC4/BLE_HAL_PVT.c ****         (trimRegValue == CYBLE_SFLASH_BLERD_SY_BUMP1_REG_VAL2) ||  
 689              		.loc 1 362 0 is_stmt 1
 690 00b0 7B68     		ldr	r3, [r7, #4]
 691 00b2 052B     		cmp	r3, #5
 692 00b4 01D1     		bne	.L34
 693              	.L33:
 363:.\Generated_Source\PSoC4/BLE_HAL_PVT.c ****         (trimRegValue == CYBLE_SFLASH_BLERD_SY_BUMP1_REG_VAL3))
 364:.\Generated_Source\PSoC4/BLE_HAL_PVT.c ****     {
 365:.\Generated_Source\PSoC4/BLE_HAL_PVT.c ****         trimRegValue = CYBLE_BLERD_SY_BUMP1_REG_VAL_FINAL;
 694              		.loc 1 365 0
 695 00b6 144B     		ldr	r3, .L35+64
 696 00b8 7B60     		str	r3, [r7, #4]
 697              	.L34:
 366:.\Generated_Source\PSoC4/BLE_HAL_PVT.c ****     }
 367:.\Generated_Source\PSoC4/BLE_HAL_PVT.c ****     CYBLE_BLE_BLERD_SY_BUMP1_REG = trimRegValue;
 698              		.loc 1 367 0
 699 00ba 144B     		ldr	r3, .L35+68
 700 00bc 7A68     		ldr	r2, [r7, #4]
 701 00be 1A60     		str	r2, [r3]
 368:.\Generated_Source\PSoC4/BLE_HAL_PVT.c ****       
 369:.\Generated_Source\PSoC4/BLE_HAL_PVT.c **** }
 702              		.loc 1 369 0
 703 00c0 BD46     		mov	sp, r7
 704 00c2 02B0     		add	sp, sp, #8
 705              		@ sp needed
 706 00c4 80BD     		pop	{r7, pc}
 707              	.L36:
 708 00c6 C046     		.align	2
 709              	.L35:
ARM GAS  C:\Users\xlin233\AppData\Local\Temp\ccmKiDS6.s 			page 20


 710 00c8 D9F0FF0F 		.word	268431577
 711 00cc D8F0FF0F 		.word	268431576
 712 00d0 DFF0FF0F 		.word	268431583
 713 00d4 DEF0FF0F 		.word	268431582
 714 00d8 580B0000 		.word	2904
 715 00dc 580D0000 		.word	3416
 716 00e0 6C002E40 		.word	1076756588
 717 00e4 74002E40 		.word	1076756596
 718 00e8 DBF0FF0F 		.word	268431579
 719 00ec DAF0FF0F 		.word	268431578
 720 00f0 02200000 		.word	8194
 721 00f4 78002E40 		.word	1076756600
 722 00f8 DDF0FF0F 		.word	268431581
 723 00fc DCF0FF0F 		.word	268431580
 724 0100 0F0F0000 		.word	3855
 725 0104 05050000 		.word	1285
 726 0108 050F0000 		.word	3845
 727 010c 80002E40 		.word	1076756608
 728              		.cfi_endproc
 729              	.LFE8:
 730              		.size	CyBLE_BlessDeviceConfig, .-CyBLE_BlessDeviceConfig
 731              		.section	.text.CyBleHal_DelayUs,"ax",%progbits
 732              		.align	2
 733              		.global	CyBleHal_DelayUs
 734              		.code	16
 735              		.thumb_func
 736              		.type	CyBleHal_DelayUs, %function
 737              	CyBleHal_DelayUs:
 738              	.LFB9:
 370:.\Generated_Source\PSoC4/BLE_HAL_PVT.c **** 
 371:.\Generated_Source\PSoC4/BLE_HAL_PVT.c **** 
 372:.\Generated_Source\PSoC4/BLE_HAL_PVT.c **** void CyBleHal_DelayUs(uint16 delayVal)
 373:.\Generated_Source\PSoC4/BLE_HAL_PVT.c **** {
 739              		.loc 1 373 0
 740              		.cfi_startproc
 741 0000 80B5     		push	{r7, lr}
 742              		.cfi_def_cfa_offset 8
 743              		.cfi_offset 7, -8
 744              		.cfi_offset 14, -4
 745 0002 82B0     		sub	sp, sp, #8
 746              		.cfi_def_cfa_offset 16
 747 0004 00AF     		add	r7, sp, #0
 748              		.cfi_def_cfa_register 7
 749 0006 021C     		mov	r2, r0
 750 0008 BB1D     		add	r3, r7, #6
 751 000a 1A80     		strh	r2, [r3]
 374:.\Generated_Source\PSoC4/BLE_HAL_PVT.c ****     CyDelayUs(delayVal);
 752              		.loc 1 374 0
 753 000c BB1D     		add	r3, r7, #6
 754 000e 1B88     		ldrh	r3, [r3]
 755 0010 181C     		mov	r0, r3
 756 0012 FFF7FEFF 		bl	CyDelayUs
 375:.\Generated_Source\PSoC4/BLE_HAL_PVT.c **** }
 757              		.loc 1 375 0
 758 0016 BD46     		mov	sp, r7
 759 0018 02B0     		add	sp, sp, #8
 760              		@ sp needed
ARM GAS  C:\Users\xlin233\AppData\Local\Temp\ccmKiDS6.s 			page 21


 761 001a 80BD     		pop	{r7, pc}
 762              		.cfi_endproc
 763              	.LFE9:
 764              		.size	CyBleHal_DelayUs, .-CyBleHal_DelayUs
 765              		.section	.text.CyBleHal_DelayMs,"ax",%progbits
 766              		.align	2
 767              		.global	CyBleHal_DelayMs
 768              		.code	16
 769              		.thumb_func
 770              		.type	CyBleHal_DelayMs, %function
 771              	CyBleHal_DelayMs:
 772              	.LFB10:
 376:.\Generated_Source\PSoC4/BLE_HAL_PVT.c **** 
 377:.\Generated_Source\PSoC4/BLE_HAL_PVT.c **** void CyBleHal_DelayMs(uint32 delayVal)
 378:.\Generated_Source\PSoC4/BLE_HAL_PVT.c **** {
 773              		.loc 1 378 0
 774              		.cfi_startproc
 775 0000 80B5     		push	{r7, lr}
 776              		.cfi_def_cfa_offset 8
 777              		.cfi_offset 7, -8
 778              		.cfi_offset 14, -4
 779 0002 82B0     		sub	sp, sp, #8
 780              		.cfi_def_cfa_offset 16
 781 0004 00AF     		add	r7, sp, #0
 782              		.cfi_def_cfa_register 7
 783 0006 7860     		str	r0, [r7, #4]
 379:.\Generated_Source\PSoC4/BLE_HAL_PVT.c ****     CyDelay(delayVal);
 784              		.loc 1 379 0
 785 0008 7B68     		ldr	r3, [r7, #4]
 786 000a 181C     		mov	r0, r3
 787 000c FFF7FEFF 		bl	CyDelay
 380:.\Generated_Source\PSoC4/BLE_HAL_PVT.c **** }
 788              		.loc 1 380 0
 789 0010 BD46     		mov	sp, r7
 790 0012 02B0     		add	sp, sp, #8
 791              		@ sp needed
 792 0014 80BD     		pop	{r7, pc}
 793              		.cfi_endproc
 794              	.LFE10:
 795              		.size	CyBleHal_DelayMs, .-CyBleHal_DelayMs
 796 0016 C046     		.section	.text.CyBleHal_EnableGlobalInterrupts,"ax",%progbits
 797              		.align	2
 798              		.global	CyBleHal_EnableGlobalInterrupts
 799              		.code	16
 800              		.thumb_func
 801              		.type	CyBleHal_EnableGlobalInterrupts, %function
 802              	CyBleHal_EnableGlobalInterrupts:
 803              	.LFB11:
 381:.\Generated_Source\PSoC4/BLE_HAL_PVT.c **** 
 382:.\Generated_Source\PSoC4/BLE_HAL_PVT.c **** void CyBleHal_EnableGlobalInterrupts(void)
 383:.\Generated_Source\PSoC4/BLE_HAL_PVT.c **** {
 804              		.loc 1 383 0
 805              		.cfi_startproc
 806 0000 80B5     		push	{r7, lr}
 807              		.cfi_def_cfa_offset 8
 808              		.cfi_offset 7, -8
 809              		.cfi_offset 14, -4
ARM GAS  C:\Users\xlin233\AppData\Local\Temp\ccmKiDS6.s 			page 22


 810 0002 00AF     		add	r7, sp, #0
 811              		.cfi_def_cfa_register 7
 384:.\Generated_Source\PSoC4/BLE_HAL_PVT.c ****     BLE_bless_isr_Enable();
 812              		.loc 1 384 0
 813 0004 FFF7FEFF 		bl	BLE_bless_isr_Enable
 385:.\Generated_Source\PSoC4/BLE_HAL_PVT.c **** }
 814              		.loc 1 385 0
 815 0008 BD46     		mov	sp, r7
 816              		@ sp needed
 817 000a 80BD     		pop	{r7, pc}
 818              		.cfi_endproc
 819              	.LFE11:
 820              		.size	CyBleHal_EnableGlobalInterrupts, .-CyBleHal_EnableGlobalInterrupts
 821              		.section	.text.CyBleHal_DisableGlobalInterrupts,"ax",%progbits
 822              		.align	2
 823              		.global	CyBleHal_DisableGlobalInterrupts
 824              		.code	16
 825              		.thumb_func
 826              		.type	CyBleHal_DisableGlobalInterrupts, %function
 827              	CyBleHal_DisableGlobalInterrupts:
 828              	.LFB12:
 386:.\Generated_Source\PSoC4/BLE_HAL_PVT.c **** 
 387:.\Generated_Source\PSoC4/BLE_HAL_PVT.c **** void CyBleHal_DisableGlobalInterrupts(void)
 388:.\Generated_Source\PSoC4/BLE_HAL_PVT.c **** {
 829              		.loc 1 388 0
 830              		.cfi_startproc
 831 0000 80B5     		push	{r7, lr}
 832              		.cfi_def_cfa_offset 8
 833              		.cfi_offset 7, -8
 834              		.cfi_offset 14, -4
 835 0002 00AF     		add	r7, sp, #0
 836              		.cfi_def_cfa_register 7
 389:.\Generated_Source\PSoC4/BLE_HAL_PVT.c ****     BLE_bless_isr_Disable();
 837              		.loc 1 389 0
 838 0004 FFF7FEFF 		bl	BLE_bless_isr_Disable
 390:.\Generated_Source\PSoC4/BLE_HAL_PVT.c **** }
 839              		.loc 1 390 0
 840 0008 BD46     		mov	sp, r7
 841              		@ sp needed
 842 000a 80BD     		pop	{r7, pc}
 843              		.cfi_endproc
 844              	.LFE12:
 845              		.size	CyBleHal_DisableGlobalInterrupts, .-CyBleHal_DisableGlobalInterrupts
 846              		.section	.text.CyBle_HalInit,"ax",%progbits
 847              		.align	2
 848              		.global	CyBle_HalInit
 849              		.code	16
 850              		.thumb_func
 851              		.type	CyBle_HalInit, %function
 852              	CyBle_HalInit:
 853              	.LFB13:
 391:.\Generated_Source\PSoC4/BLE_HAL_PVT.c **** 
 392:.\Generated_Source\PSoC4/BLE_HAL_PVT.c **** void CyBle_HalInit(void)
 393:.\Generated_Source\PSoC4/BLE_HAL_PVT.c **** {
 854              		.loc 1 393 0
 855              		.cfi_startproc
 856 0000 80B5     		push	{r7, lr}
ARM GAS  C:\Users\xlin233\AppData\Local\Temp\ccmKiDS6.s 			page 23


 857              		.cfi_def_cfa_offset 8
 858              		.cfi_offset 7, -8
 859              		.cfi_offset 14, -4
 860 0002 00AF     		add	r7, sp, #0
 861              		.cfi_def_cfa_register 7
 394:.\Generated_Source\PSoC4/BLE_HAL_PVT.c ****     /* For all we know the interrupt is active. */
 395:.\Generated_Source\PSoC4/BLE_HAL_PVT.c ****     BLE_bless_isr_Disable();
 862              		.loc 1 395 0
 863 0004 FFF7FEFF 		bl	BLE_bless_isr_Disable
 396:.\Generated_Source\PSoC4/BLE_HAL_PVT.c **** 
 397:.\Generated_Source\PSoC4/BLE_HAL_PVT.c ****     /* Set the ISR to point to the BLE_bless_isr Interrupt. */
 398:.\Generated_Source\PSoC4/BLE_HAL_PVT.c ****     BLE_bless_isr_SetVector(&CyBLE_Bless_Interrupt);
 864              		.loc 1 398 0
 865 0008 044B     		ldr	r3, .L42
 866 000a 181C     		mov	r0, r3
 867 000c FFF7FEFF 		bl	BLE_bless_isr_SetVector
 399:.\Generated_Source\PSoC4/BLE_HAL_PVT.c **** 
 400:.\Generated_Source\PSoC4/BLE_HAL_PVT.c ****     /* Set the priority. */
 401:.\Generated_Source\PSoC4/BLE_HAL_PVT.c ****     BLE_bless_isr_SetPriority((uint8)BLE_bless_isr_INTC_PRIOR_NUMBER);
 868              		.loc 1 401 0
 869 0010 0320     		mov	r0, #3
 870 0012 FFF7FEFF 		bl	BLE_bless_isr_SetPriority
 402:.\Generated_Source\PSoC4/BLE_HAL_PVT.c **** }
 871              		.loc 1 402 0
 872 0016 BD46     		mov	sp, r7
 873              		@ sp needed
 874 0018 80BD     		pop	{r7, pc}
 875              	.L43:
 876 001a C046     		.align	2
 877              	.L42:
 878 001c 00000000 		.word	CyBLE_Bless_Interrupt
 879              		.cfi_endproc
 880              	.LFE13:
 881              		.size	CyBle_HalInit, .-CyBle_HalInit
 882              		.section	.text.CYBLE_BlessStart,"ax",%progbits
 883              		.align	2
 884              		.global	CYBLE_BlessStart
 885              		.code	16
 886              		.thumb_func
 887              		.type	CYBLE_BlessStart, %function
 888              	CYBLE_BlessStart:
 889              	.LFB14:
 403:.\Generated_Source\PSoC4/BLE_HAL_PVT.c **** 
 404:.\Generated_Source\PSoC4/BLE_HAL_PVT.c **** /* Start Interrupt Controller API. */
 405:.\Generated_Source\PSoC4/BLE_HAL_PVT.c **** void CYBLE_BlessStart(void)
 406:.\Generated_Source\PSoC4/BLE_HAL_PVT.c **** {
 890              		.loc 1 406 0
 891              		.cfi_startproc
 892 0000 80B5     		push	{r7, lr}
 893              		.cfi_def_cfa_offset 8
 894              		.cfi_offset 7, -8
 895              		.cfi_offset 14, -4
 896 0002 00AF     		add	r7, sp, #0
 897              		.cfi_def_cfa_register 7
 407:.\Generated_Source\PSoC4/BLE_HAL_PVT.c ****     BLE_bless_isr_StartEx(&CyBLE_Bless_Interrupt);
 898              		.loc 1 407 0
 899 0004 024B     		ldr	r3, .L45
ARM GAS  C:\Users\xlin233\AppData\Local\Temp\ccmKiDS6.s 			page 24


 900 0006 181C     		mov	r0, r3
 901 0008 FFF7FEFF 		bl	BLE_bless_isr_StartEx
 408:.\Generated_Source\PSoC4/BLE_HAL_PVT.c **** }
 902              		.loc 1 408 0
 903 000c BD46     		mov	sp, r7
 904              		@ sp needed
 905 000e 80BD     		pop	{r7, pc}
 906              	.L46:
 907              		.align	2
 908              	.L45:
 909 0010 00000000 		.word	CyBLE_Bless_Interrupt
 910              		.cfi_endproc
 911              	.LFE14:
 912              		.size	CYBLE_BlessStart, .-CYBLE_BlessStart
 913              		.text
 914              	.Letext0:
 915              		.file 2 ".\\Generated_Source\\PSoC4\\cytypes.h"